Certificate:
    Data:
        Version: 3 (0x2)
        Serial Number: 1 (0x1)
        Signature Algorithm: sha256WithRSAEncryption
        Issuer: C=PL, O=Krajowy Integrator P\xC5\x82atno\xC5\x9Bci S. A., OU=KIP SA Sandbox CA, CN=KIP SA Sandbox CA
        Validity
            Not Before: Jul  5 19:27:49 2023 GMT
            Not After : Jun 27 19:27:49 2053 GMT
        Subject: C=PL, ST=Wielkopolskie, L=Pozna\xC5\x84, O=Krajowy Integrator P\xC5\x82atno\xC5\x9Bci S. A., OU=KIP SA Notification Sandbox JWS, CN=notification.sandbox.tpay.com
        Subject Public Key Info:
            Public Key Algorithm: rsaEncryption
                Public-Key: (4096 bit)
                Modulus:
                    00:bd:cc:a0:1f:7c:d1:46:ca:55:65:6a:40:f9:8f:
                    90:3a:09:1c:c6:e2:bb:13:84:5a:eb:d7:94:ce:9d:
                    2e:92:a6:70:dc:4a:dc:ab:3d:2a:59:2c:3c:99:3f:
                    9f:02:a0:66:84:6c:7d:33:38:48:50:36:75:7a:e5:
                    0a:30:ec:be:fd:4d:28:b9:87:97:3e:70:b6:10:ec:
                    fd:8a:42:02:5a:1b:4a:8b:4d:d5:18:08:1c:cf:e1:
                    02:2b:55:26:0a:84:d5:12:57:74:6c:6c:8f:dd:95:
                    e4:24:a8:cd:5c:88:88:04:c3:c6:e0:ee:92:1d:e1:
                    ad:75:8d:57:85:e8:7c:a9:05:85:a4:ff:22:79:87:
                    5b:6f:ee:c8:ec:a7:f3:ed:b8:75:11:fd:4c:8a:04:
                    99:c3:90:1a:b8:1f:0b:c9:ab:6f:84:02:d9:0f:97:
                    d0:55:24:8b:cc:db:7d:79:c9:84:17:dc:fd:dd:25:
                    f2:23:65:86:5b:ce:8f:a1:57:00:e3:4f:b2:d7:ac:
                    01:5b:38:9b:4d:18:ee:97:e3:99:1d:fb:0c:d5:9d:
                    30:d7:de:44:ae:01:66:32:68:fa:91:63:59:65:aa:
                    10:ea:7f:41:69:f0:b6:01:f5:d2:2d:8c:39:a6:e2:
                    92:32:96:04:bb:ad:90:c8:b7:6d:3a:36:99:a3:c7:
                    c4:d7:3a:1e:77:f5:68:5a:a3:6c:9d:42:71:23:71:
                    78:65:9b:11:f8:85:16:40:71:89:49:69:51:fd:57:
                    0a:5f:30:de:5f:b0:fe:7e:7a:cf:b3:64:8d:80:29:
                    25:71:61:aa:56:1c:95:fa:81:5f:e1:54:ac:92:b7:
                    97:e5:f8:e5:8a:72:30:ad:f2:43:b0:0a:a1:81:ff:
                    2a:01:d9:2e:a9:7a:05:0e:3f:81:60:a3:0f:46:ec:
                    7e:77:b0:7b:06:b5:29:73:9c:cb:96:fb:c0:c4:df:
                    ba:41:a6:bc:dc:8e:04:c5:5c:e6:be:bd:ab:a6:9d:
                    b8:54:00:26:ac:89:77:05:36:f8:43:65:14:3c:31:
                    f4:27:7b:bd:71:b0:88:28:ad:ed:da:1f:86:f3:e0:
                    af:09:05:12:f3:59:7e:b8:39:13:6b:07:1b:a3:ea:
                    e7:d5:0f:8e:41:99:89:e3:cb:d9:06:b0:29:68:4b:
                    73:f4:65:62:e0:87:7c:47:81:6a:61:c3:37:fa:c3:
                    66:04:0d:d5:66:7e:98:c3:09:91:76:b2:f9:18:2c:
                    c2:32:c6:39:a2:06:02:02:af:fd:74:84:b4:ed:a0:
                    2b:27:e5:65:bb:41:5f:89:e3:0e:08:36:12:b9:9a:
                    9b:33:f3:b0:4d:e3:0a:6a:20:25:d7:90:a3:24:23:
                    f1:fa:b1
                Exponent: 65537 (0x10001)
        X509v3 extensions:
            X509v3 Key Usage: critical
                Digital Signature
            X509v3 Basic Constraints: 
                CA:FALSE
            X509v3 Extended Key Usage: 
                TLS Web Client Authentication
            X509v3 Subject Key Identifier: 
                31:22:C9:E0:B2:AD:B4:A4:89:A1:83:1B:86:6E:A5:A0:1A:CD:B8:3A
            X509v3 Authority Key Identifier: 
                19:20:63:DB:A8:48:E9:7E:2B:D0:BB:BE:39:2B:A9:24:BC:AF:6C:4C
            Authority Information Access: 
                CA Issuers - URI:https://pki.sandbox.tpay.com/ca/sandbox-ca.cer
            X509v3 CRL Distribution Points: 
                Full Name:
                  URI:https://pki.sandbox.tpay.com/ca/sandbox-ca.crl
            X509v3 Subject Alternative Name: 
                email:admin@tpay.com
    Signature Algorithm: sha256WithRSAEncryption
    Signature Value:
        44:d3:7d:88:6a:a5:84:48:19:eb:3c:4c:69:36:5f:a1:6b:df:
        01:a0:77:c0:03:41:a9:66:c4:c9:16:af:ac:91:b8:ee:54:e2:
        e8:f3:50:9a:b0:57:93:c2:ee:82:2a:9f:b7:5d:b7:29:c3:8e:
        e0:18:d1:ce:eb:9a:5f:bf:7b:e5:e2:f5:14:1b:e1:f9:e1:0e:
        9f:79:30:c7:3e:07:cd:43:cf:8e:5e:53:a8:7d:ed:47:8e:06:
        bb:77:d2:c3:0b:62:e6:80:08:ba:7a:e3:de:6a:da:f1:e9:07:
        a1:ad:29:29:3a:e0:09:cb:6e:52:95:8e:9f:14:ad:37:0a:e9:
        f0:d2:7a:57:77:85:ef:9c:c4:68:21:7b:3b:31:ff:ef:05:30:
        e3:c0:5b:7b:c5:90:ac:b6:e3:1a:7e:fe:5f:c7:b0:e3:59:7f:
        f5:0b:4b:cc:53:27:28:c1:66:de:82:56:a7:18:e3:e9:66:c3:
        c0:3c:d0:d2:26:3a:f3:29:91:90:50:58:f5:41:fd:88:ef:23:
        00:29:c3:d4:db:73:54:99:2c:48:de:a5:b1:8f:79:15:01:6b:
        53:e1:bf:cc:cd:f6:92:b7:5b:fe:8a:13:a5:84:34:15:10:1c:
        28:8a:25:0d:af:ca:df:79:94:06:18:6a:f7:c3:2f:7b:2b:61:
        1e:c1:90:92:96:10:43:a8:9c:74:07:d2:90:87:b0:03:df:42:
        af:0b:9a:f0:89:18:94:31:8f:f3:22:8f:d1:e9:4b:30:7d:99:
        47:95:db:ed:a5:f4:ef:28:fe:b0:67:64:cc:f2:8c:50:32:43:
        f3:1b:27:e3:40:c0:09:ba:0e:9f:63:32:d2:ce:05:3e:8b:25:
        67:7e:4e:47:ac:a9:53:5f:35:26:1e:6a:62:8b:b4:1e:80:8d:
        b8:80:60:3d:05:4c:0a:5b:f1:02:d5:d4:c7:1e:c1:c1:bd:97:
        3c:11:5c:3c:28:d9:59:0d:3d:10:78:0b:b0:09:bb:6d:e9:50:
        ff:36:80:50:0e:65:25:e6:65:0f:dc:72:38:df:57:59:dc:04:
        ba:8a:3f:60:29:6d:95:bf:ef:f0:db:dc:3b:1d:1b:49:6e:f8:
        35:3f:36:a2:82:be:91:d4:d7:39:c2:b5:dd:52:ba:e7:2d:bb:
        2a:a0:5c:76:81:da:5b:7e:da:6a:32:8d:f3:e6:b7:4e:a1:df:
        0c:00:90:4a:18:20:6e:45:fe:34:67:ad:cf:2a:ef:b1:98:77:
        50:f3:b1:e0:97:92:f3:a7:5a:bc:cc:c1:1b:23:dd:88:f0:dc:
        f1:bf:5d:38:80:4c:c5:d4:fc:03:d2:48:4e:40:f4:92:0b:ce:
        7c:ee:ef:81:9b:1a:5e:b1
-----BEGIN CERTIFICATE-----
MIIGyDCCBLCgAwIBAgIBATANBgkqhkiG9w0BAQsFADB0MQswCQYDVQQGEwJQTDEt
MCsGA1UECgwkS3Jham93eSBJbnRlZ3JhdG9yIFDFgmF0bm/Fm2NpIFMuIEEuMRow
GAYDVQQLDBFLSVAgU0EgU2FuZGJveCBDQTEaMBgGA1UEAwwRS0lQIFNBIFNhbmRi
b3ggQ0EwIBcNMjMwNzA1MTkyNzQ5WhgPMjA1MzA2MjcxOTI3NDlaMIG4MQswCQYD
VQQGEwJQTDEWMBQGA1UECAwNV2llbGtvcG9sc2tpZTEQMA4GA1UEBwwHUG96bmHF
hDEtMCsGA1UECgwkS3Jham93eSBJbnRlZ3JhdG9yIFDFgmF0bm/Fm2NpIFMuIEEu
MSgwJgYDVQQLDB9LSVAgU0EgTm90aWZpY2F0aW9uIFNhbmRib3ggSldTMSYwJAYD
VQQDDB1ub3RpZmljYXRpb24uc2FuZGJveC50cGF5LmNvbTCCAiIwDQYJKoZIhvcN
AQEBBQADggIPADCCAgoCggIBAL3MoB980UbKVWVqQPmPkDoJHMbiuxOEWuvXlM6d
LpKmcNxK3Ks9KlksPJk/nwKgZoRsfTM4SFA2dXrlCjDsvv1NKLmHlz5wthDs/YpC
AlobSotN1RgIHM/hAitVJgqE1RJXdGxsj92V5CSozVyIiATDxuDukh3hrXWNV4Xo
fKkFhaT/InmHW2/uyOyn8+24dRH9TIoEmcOQGrgfC8mrb4QC2Q+X0FUki8zbfXnJ
hBfc/d0l8iNlhlvOj6FXAONPstesAVs4m00Y7pfjmR37DNWdMNfeRK4BZjJo+pFj
WWWqEOp/QWnwtgH10i2MOabikjKWBLutkMi3bTo2maPHxNc6Hnf1aFqjbJ1CcSNx
eGWbEfiFFkBxiUlpUf1XCl8w3l+w/n56z7NkjYApJXFhqlYclfqBX+FUrJK3l+X4
5YpyMK3yQ7AKoYH/KgHZLql6BQ4/gWCjD0bsfnewewa1KXOcy5b7wMTfukGmvNyO
BMVc5r69q6aduFQAJqyJdwU2+ENlFDwx9Cd7vXGwiCit7dofhvPgrwkFEvNZfrg5
E2sHG6Pq59UPjkGZiePL2QawKWhLc/RlYuCHfEeBamHDN/rDZgQN1WZ+mMMJkXay
+RgswjLGOaIGAgKv/XSEtO2gKyflZbtBX4njDgg2ErmamzPzsE3jCmogJdeQoyQj
8fqxAgMBAAGjggEcMIIBGDAOBgNVHQ8BAf8EBAMCB4AwCQYDVR0TBAIwADATBgNV
HSUEDDAKBggrBgEFBQcDAjAdBgNVHQ4EFgQUMSLJ4LKttKSJoYMbhm6loBrNuDow
HwYDVR0jBBgwFoAUGSBj26hI6X4r0Lu+OSupJLyvbEwwSgYIKwYBBQUHAQEEPjA8
MDoGCCsGAQUFBzAChi5odHRwczovL3BraS5zYW5kYm94LnRwYXkuY29tL2NhL3Nh
bmRib3gtY2EuY2VyMD8GA1UdHwQ4MDYwNKAyoDCGLmh0dHBzOi8vcGtpLnNhbmRi
b3gudHBheS5jb20vY2Evc2FuZGJveC1jYS5jcmwwGQYDVR0RBBIwEIEOYWRtaW5A
dHBheS5jb20wDQYJKoZIhvcNAQELBQADggIBAETTfYhqpYRIGes8TGk2X6Fr3wGg
d8ADQalmxMkWr6yRuO5U4ujzUJqwV5PC7oIqn7ddtynDjuAY0c7rml+/e+Xi9RQb
4fnhDp95MMc+B81Dz45eU6h97UeOBrt30sMLYuaACLp6495q2vHpB6GtKSk64AnL
blKVjp8UrTcK6fDSeld3he+cxGghezsx/+8FMOPAW3vFkKy24xp+/l/HsONZf/UL
S8xTJyjBZt6CVqcY4+lmw8A80NImOvMpkZBQWPVB/YjvIwApw9Tbc1SZLEjepbGP
eRUBa1Phv8zN9pK3W/6KE6WENBUQHCiKJQ2vyt95lAYYavfDL3srYR7BkJKWEEOo
nHQH0pCHsAPfQq8LmvCJGJQxj/Mij9HpSzB9mUeV2+2l9O8o/rBnZMzyjFAyQ/Mb
J+NAwAm6Dp9jMtLOBT6LJWd+TkesqVNfNSYeamKLtB6AjbiAYD0FTApb8QLV1Mce
wcG9lzwRXDwo2VkNPRB4C7AJu23pUP82gFAOZSXmZQ/ccjjfV1ncBLqKP2ApbZW/
7/Db3DsdG0lu+DU/NqKCvpHU1znCtd1SuuctuyqgXHaB2lt+2moyjfPmt06h3wwA
kEoYIG5F/jRnrc8q77GYd1DzseCXkvOnWrzMwRsj3Yjw3PG/XTiATMXU/APSSE5A
9JILznzu74GbGl6x
-----END CERTIFICATE-----

